; Function Attrs: nounwind uwtable
define internal fastcc range(i32 0, 2) i32 @print_bit_named_day(ptr noundef %0, ptr noundef %1) unnamed_addr #1 {
  br label %3

3:                                                ; preds = %15, %2
  %indvars.iv.i = phi i64 [ 0, %2 ], [ %indvars.iv.next.i, %15 ]
  %.014.i = phi i32 [ 0, %2 ], [ %.1.i, %15 ]
  %4 = trunc nuw nsw i64 %indvars.iv.i to i32
  %5 = tail call i32 @ASN1_BIT_STRING_get_bit(ptr noundef %1, i32 noundef %4) #4
  %.not.i = icmp eq i32 %5, 0
  br i1 %.not.i, label %15, label %6

6:                                                ; preds = %3
  %7 = icmp sgt i32 %.014.i, 0
  br i1 %7, label %8, label %10

8:                                                ; preds = %6
  %9 = tail call i32 @BIO_puts(ptr noundef %0, ptr noundef nonnull @.str.64) #4
  %.not11.i = icmp eq i32 %9, 0
  br i1 %.not11.i, label %print_day_of_week.exit, label %10

10:                                               ; preds = %8, %6
  %11 = add nsw i32 %.014.i, 1
  %12 = getelementptr inbounds nuw [7 x ptr], ptr @switch.table.print_int_named_day, i64 0, i64 %indvars.iv.i
  %13 = load ptr, ptr %12, align 8, !tbaa !45
  %14 = tail call i32 @BIO_puts(ptr noundef %0, ptr noundef %13) #4
  %.not12.i = icmp eq i32 %14, 0
  br i1 %.not12.i, label %print_day_of_week.exit, label %15

15:                                               ; preds = %10, %3
  %.1.i = phi i32 [ %11, %10 ], [ %.014.i, %3 ]
  %indvars.iv.next.i = add nuw nsw i64 %indvars.iv.i, 1
  %exitcond.not.i = icmp eq i64 %indvars.iv.next.i, 7
  br i1 %exitcond.not.i, label %print_day_of_week.exit, label %3, !llvm.loop !46

print_day_of_week.exit:                           ; preds = %8, %10, %15
  %.010.i = phi i32 [ 0, %8 ], [ 0, %10 ], [ 1, %15 ]
  ret i32 %.010.i
}